; Function Attrs: nounwind uwtable
define range(i32 0, 2) i32 @X509V3_EXT_add_alias(i32 noundef %0, i32 noundef %1) local_unnamed_addr #0 {
  %3 = alloca %struct.v3_ext_method, align 8
  %4 = alloca ptr, align 8
  call void @llvm.lifetime.start.p0(i64 104, ptr nonnull %3) #7
  call void @llvm.lifetime.start.p0(i64 8, ptr nonnull %4) #7
  store ptr %3, ptr %4, align 8, !tbaa !8
  %5 = icmp slt i32 %1, 0
  br i1 %5, label %X509V3_EXT_get_nid.exit.thread, label %6

6:                                                ; preds = %2
  store i32 %1, ptr %3, align 8, !tbaa !10
  %7 = call ptr @OBJ_bsearch_(ptr noundef nonnull %4, ptr noundef nonnull @standard_exts, i32 noundef 73, i32 noundef 8, ptr noundef nonnull @ext_cmp_BSEARCH_CMP_FN) #7
  %.not.i = icmp eq ptr %7, null
  br i1 %.not.i, label %10, label %8

8:                                                ; preds = %6
  %9 = load ptr, ptr %7, align 8, !tbaa !8
  br label %X509V3_EXT_get_nid.exit

10:                                               ; preds = %6
  %11 = load ptr, ptr @ext_list, align 8, !tbaa !3
  %.not8.i = icmp eq ptr %11, null
  br i1 %.not8.i, label %X509V3_EXT_get_nid.exit.thread, label %12

12:                                               ; preds = %10
  call void @OPENSSL_sk_sort(ptr noundef nonnull %11) #7
  %13 = load ptr, ptr @ext_list, align 8, !tbaa !3
  %14 = call i32 @OPENSSL_sk_find(ptr noundef %13, ptr noundef nonnull %3) #7
  %15 = load ptr, ptr @ext_list, align 8, !tbaa !3
  %16 = call ptr @OPENSSL_sk_value(ptr noundef %15, i32 noundef %14) #7
  br label %X509V3_EXT_get_nid.exit

X509V3_EXT_get_nid.exit.thread:                   ; preds = %2, %10
  call void @llvm.lifetime.end.p0(i64 8, ptr nonnull %4) #7
  call void @llvm.lifetime.end.p0(i64 104, ptr nonnull %3) #7
  br label %18

X509V3_EXT_get_nid.exit:                          ; preds = %8, %12
  %.0.i = phi ptr [ %9, %8 ], [ %16, %12 ]
  call void @llvm.lifetime.end.p0(i64 8, ptr nonnull %4) #7
  call void @llvm.lifetime.end.p0(i64 104, ptr nonnull %3) #7
  %17 = icmp eq ptr %.0.i, null
  br i1 %17, label %18, label %19

18:                                               ; preds = %X509V3_EXT_get_nid.exit.thread, %X509V3_EXT_get_nid.exit
  call void @ERR_new() #7
  call void @ERR_set_debug(ptr noundef nonnull @.str, i32 noundef 95, ptr noundef nonnull @__func__.X509V3_EXT_add_alias) #7
  br label %X509V3_EXT_add.exit.sink.split

19:                                               ; preds = %X509V3_EXT_get_nid.exit
  %20 = call noalias ptr @CRYPTO_malloc(i64 noundef 104, ptr noundef nonnull @.str, i32 noundef 98) #7
  %21 = icmp eq ptr %20, null
  br i1 %21, label %X509V3_EXT_add.exit, label %22

22:                                               ; preds = %19
  call void @llvm.memcpy.p0.p0.i64(ptr noundef nonnull align 8 dereferenceable(104) %20, ptr noundef nonnull align 8 dereferenceable(104) %.0.i, i64 104, i1 false), !tbaa.struct !15
  store i32 %0, ptr %20, align 8, !tbaa !10
  %23 = getelementptr inbounds nuw i8, ptr %20, i64 4
  %24 = load i32, ptr %23, align 4, !tbaa !18
  %25 = or i32 %24, 1
  store i32 %25, ptr %23, align 4, !tbaa !18
  %26 = load ptr, ptr @ext_list, align 8, !tbaa !3
  %27 = icmp eq ptr %26, null
  br i1 %27, label %28, label %31

28:                                               ; preds = %22
  %29 = call ptr @OPENSSL_sk_new(ptr noundef nonnull @ext_cmp) #7
  store ptr %29, ptr @ext_list, align 8, !tbaa !3
  %30 = icmp eq ptr %29, null
  br i1 %30, label %.sink.split.i, label %31

31:                                               ; preds = %28, %22
  %32 = phi ptr [ %29, %28 ], [ %26, %22 ]
  %33 = call i32 @OPENSSL_sk_push(ptr noundef nonnull %32, ptr noundef nonnull %20) #7
  %.not.i9 = icmp eq i32 %33, 0
  br i1 %.not.i9, label %.sink.split.i, label %X509V3_EXT_add.exit

.sink.split.i:                                    ; preds = %31, %28
  %.sink.i = phi i32 [ 29, %28 ], [ 33, %31 ]
  call void @ERR_new() #7
  call void @ERR_set_debug(ptr noundef nonnull @.str, i32 noundef %.sink.i, ptr noundef nonnull @__func__.X509V3_EXT_add) #7
  br label %X509V3_EXT_add.exit.sink.split

X509V3_EXT_add.exit.sink.split:                   ; preds = %18, %.sink.split.i
  %.sink = phi i32 [ 524303, %.sink.split.i ], [ 102, %18 ]
  call void (i32, i32, ptr, ...) @ERR_set_error(i32 noundef 34, i32 noundef %.sink, ptr noundef null) #7
  br label %X509V3_EXT_add.exit

X509V3_EXT_add.exit:                              ; preds = %X509V3_EXT_add.exit.sink.split, %31, %19
  %.0 = phi i32 [ 0, %19 ], [ 1, %31 ], [ 0, %X509V3_EXT_add.exit.sink.split ]
  ret i32 %.0
}